; Function Attrs: mustprogress uwtable
define noundef double @_ZN8QuantLib11AlphaFinder20computeQuadraticPartEd(ptr nocapture noundef nonnull readonly align 8 dereferenceable(176) %this, double noundef %alpha) local_unnamed_addr #1 align 2 {
entry:
  %0 = load ptr, ptr %this, align 8, !tbaa !3
  %cmp.not.i = icmp eq ptr %0, null
  br i1 %cmp.not.i, label %cond.false.i, label %_ZNK5boost10shared_ptrIN8QuantLib9AlphaFormEEptEv.exit, !prof !10

cond.false.i:                                     ; preds = %entry
  tail call void @_ZN5boost16assertion_failedEPKcS1_S1_l(ptr noundef nonnull @.str, ptr noundef nonnull @__PRETTY_FUNCTION__._ZNK5boost10shared_ptrIN8QuantLib9AlphaFormEEptEv, ptr noundef nonnull @.str.1, i64 noundef 784)
  %.pre.i = load ptr, ptr %this, align 8, !tbaa !3
  br label %_ZNK5boost10shared_ptrIN8QuantLib9AlphaFormEEptEv.exit

_ZNK5boost10shared_ptrIN8QuantLib9AlphaFormEEptEv.exit: ; preds = %entry, %cond.false.i
  %1 = phi ptr [ %0, %entry ], [ %.pre.i, %cond.false.i ]
  %vtable = load ptr, ptr %1, align 8, !tbaa !11
  %vfn = getelementptr inbounds i8, ptr %vtable, i64 24
  %2 = load ptr, ptr %vfn, align 8
  tail call void %2(ptr noundef nonnull align 8 dereferenceable(8) %1, double noundef %alpha)
  %stepindex_ = getelementptr inbounds nuw i8, ptr %this, i64 16
  %3 = load i32, ptr %stepindex_, align 8, !tbaa !13
  %cmp.not10 = icmp slt i32 %3, 0
  br i1 %cmp.not10, label %for.cond.cleanup, label %for.body.lr.ph

for.body.lr.ph:                                   ; preds = %_ZNK5boost10shared_ptrIN8QuantLib9AlphaFormEEptEv.exit
  %ratetwohomogeneousvols_ = getelementptr inbounds nuw i8, ptr %this, i64 48
  br label %for.body

for.cond.cleanup:                                 ; preds = %_ZNK5boost10shared_ptrIN8QuantLib9AlphaFormEEdeEv.exit, %_ZNK5boost10shared_ptrIN8QuantLib9AlphaFormEEptEv.exit
  %var.0.lcssa = phi double [ 0.000000e+00, %_ZNK5boost10shared_ptrIN8QuantLib9AlphaFormEEptEv.exit ], [ %11, %_ZNK5boost10shared_ptrIN8QuantLib9AlphaFormEEdeEv.exit ]
  %w1_ = getelementptr inbounds nuw i8, ptr %this, i64 128
  %4 = load double, ptr %w1_, align 8, !tbaa !22
  %mul10 = fmul double %4, %4
  %mul11 = fmul double %var.0.lcssa, %mul10
  ret double %mul11

for.body:                                         ; preds = %for.body.lr.ph, %_ZNK5boost10shared_ptrIN8QuantLib9AlphaFormEEdeEv.exit
  %indvars.iv = phi i64 [ 0, %for.body.lr.ph ], [ %indvars.iv.next, %_ZNK5boost10shared_ptrIN8QuantLib9AlphaFormEEdeEv.exit ]
  %var.012 = phi double [ 0.000000e+00, %for.body.lr.ph ], [ %11, %_ZNK5boost10shared_ptrIN8QuantLib9AlphaFormEEdeEv.exit ]
  %5 = load ptr, ptr %ratetwohomogeneousvols_, align 8, !tbaa !23
  %add.ptr.i = getelementptr inbounds nuw double, ptr %5, i64 %indvars.iv
  %6 = load double, ptr %add.ptr.i, align 8, !tbaa !24
  %7 = load ptr, ptr %this, align 8, !tbaa !3
  %cmp.not.i7 = icmp eq ptr %7, null
  br i1 %cmp.not.i7, label %cond.false.i8, label %_ZNK5boost10shared_ptrIN8QuantLib9AlphaFormEEdeEv.exit, !prof !10

cond.false.i8:                                    ; preds = %for.body
  tail call void @_ZN5boost16assertion_failedEPKcS1_S1_l(ptr noundef nonnull @.str, ptr noundef nonnull @__PRETTY_FUNCTION__._ZNK5boost10shared_ptrIN8QuantLib9AlphaFormEEdeEv, ptr noundef nonnull @.str.1, i64 noundef 778)
  %.pre.i9 = load ptr, ptr %this, align 8, !tbaa !3
  br label %_ZNK5boost10shared_ptrIN8QuantLib9AlphaFormEEdeEv.exit

_ZNK5boost10shared_ptrIN8QuantLib9AlphaFormEEdeEv.exit: ; preds = %for.body, %cond.false.i8
  %8 = phi ptr [ %7, %for.body ], [ %.pre.i9, %cond.false.i8 ]
  %vtable5 = load ptr, ptr %8, align 8, !tbaa !11
  %vfn6 = getelementptr inbounds i8, ptr %vtable5, i64 16
  %9 = load ptr, ptr %vfn6, align 8
  %10 = trunc nuw nsw i64 %indvars.iv to i32
  %call7 = tail call noundef double %9(ptr noundef nonnull align 8 dereferenceable(8) %8, i32 noundef %10)
  %mul = fmul double %6, %call7
  %11 = tail call double @llvm.fmuladd.f64(double %mul, double %mul, double %var.012)
  %indvars.iv.next = add nuw nsw i64 %indvars.iv, 1
  %12 = load i32, ptr %stepindex_, align 8, !tbaa !13
  %13 = sext i32 %12 to i64
  %cmp.not.not = icmp slt i64 %indvars.iv, %13
  br i1 %cmp.not.not, label %for.body, label %for.cond.cleanup, !llvm.loop !27
}